target datalayout = "e-m:e-p270:32:32-p271:32:32-p272:64:64-i64:64-i128:128-f80:128-n8:16:32:64-S128"
target triple = "x86_64-pc-linux-gnu"

%struct.nghttp2_frame_hd = type { i64, i32, i8, i8, i8 }
%struct.nghttp2_extension = type { %struct.nghttp2_frame_hd, ptr }
%struct.nghttp2_ext_altsvc = type { ptr, i64, ptr, i64 }

; Function Attrs: nounwind uwtable
define hidden void @nghttp2_frame_hd_init(ptr noundef %0, i64 noundef %1, i8 noundef zeroext %2, i8 noundef zeroext %3, i32 noundef %4) #0 {
  %6 = alloca ptr, align 8
  %7 = alloca i64, align 8
  %8 = alloca i8, align 1
  %9 = alloca i8, align 1
  %10 = alloca i32, align 4
  store ptr %0, ptr %6, align 8, !tbaa !8
  store i64 %1, ptr %7, align 8, !tbaa !18
  store i8 %2, ptr %8, align 1, !tbaa !14
  store i8 %3, ptr %9, align 1, !tbaa !14
  store i32 %4, ptr %10, align 4, !tbaa !19
  %11 = load i64, ptr %7, align 8, !tbaa !18
  %12 = load ptr, ptr %6, align 8, !tbaa !8
  %13 = getelementptr inbounds nuw %struct.nghttp2_frame_hd, ptr %12, i32 0, i32 0
  store i64 %11, ptr %13, align 8, !tbaa !9
  %14 = load i8, ptr %8, align 1, !tbaa !14
  %15 = load ptr, ptr %6, align 8, !tbaa !8
  %16 = getelementptr inbounds nuw %struct.nghttp2_frame_hd, ptr %15, i32 0, i32 2
  store i8 %14, ptr %16, align 4, !tbaa !13
  %17 = load i8, ptr %9, align 1, !tbaa !14
  %18 = load ptr, ptr %6, align 8, !tbaa !8
  %19 = getelementptr inbounds nuw %struct.nghttp2_frame_hd, ptr %18, i32 0, i32 3
  store i8 %17, ptr %19, align 1, !tbaa !15
  %20 = load i32, ptr %10, align 4, !tbaa !19
  %21 = load ptr, ptr %6, align 8, !tbaa !8
  %22 = getelementptr inbounds nuw %struct.nghttp2_frame_hd, ptr %21, i32 0, i32 1
  store i32 %20, ptr %22, align 8, !tbaa !16
  %23 = load ptr, ptr %6, align 8, !tbaa !8
  %24 = getelementptr inbounds nuw %struct.nghttp2_frame_hd, ptr %23, i32 0, i32 4
  store i8 0, ptr %24, align 2, !tbaa !17
  ret void
}

; Function Attrs: nounwind uwtable
define hidden void @nghttp2_frame_altsvc_init(ptr noundef %0, i32 noundef %1, ptr noundef %2, i64 noundef %3, ptr noundef %4, i64 noundef %5) #0 {
  %7 = alloca ptr, align 8
  %8 = alloca i32, align 4
  %9 = alloca ptr, align 8
  %10 = alloca i64, align 8
  %11 = alloca ptr, align 8
  %12 = alloca i64, align 8
  %13 = alloca ptr, align 8
  store ptr %0, ptr %7, align 8, !tbaa !8
  store i32 %1, ptr %8, align 4, !tbaa !19
  store ptr %2, ptr %9, align 8, !tbaa !3
  store i64 %3, ptr %10, align 8, !tbaa !18
  store ptr %4, ptr %11, align 8, !tbaa !3
  store i64 %5, ptr %12, align 8, !tbaa !18
  call void @llvm.lifetime.start.p0(i64 8, ptr %13) #7
  %14 = load ptr, ptr %7, align 8, !tbaa !8
  %15 = getelementptr inbounds nuw %struct.nghttp2_extension, ptr %14, i32 0, i32 0
  %16 = load i64, ptr %10, align 8, !tbaa !18
  %17 = add i64 2, %16
  %18 = load i64, ptr %12, align 8, !tbaa !18
  %19 = add i64 %17, %18
  %20 = load i32, ptr %8, align 4, !tbaa !19
  call void @nghttp2_frame_hd_init(ptr noundef %15, i64 noundef %19, i8 noundef zeroext 10, i8 noundef zeroext 0, i32 noundef %20)
  %21 = load ptr, ptr %7, align 8, !tbaa !8
  %22 = getelementptr inbounds nuw %struct.nghttp2_extension, ptr %21, i32 0, i32 1
  %23 = load ptr, ptr %22, align 8, !tbaa !49
  store ptr %23, ptr %13, align 8, !tbaa !8
  %24 = load ptr, ptr %9, align 8, !tbaa !3
  %25 = load ptr, ptr %13, align 8, !tbaa !8
  %26 = getelementptr inbounds nuw %struct.nghttp2_ext_altsvc, ptr %25, i32 0, i32 0
  store ptr %24, ptr %26, align 8, !tbaa !51
  %27 = load i64, ptr %10, align 8, !tbaa !18
  %28 = load ptr, ptr %13, align 8, !tbaa !8
  %29 = getelementptr inbounds nuw %struct.nghttp2_ext_altsvc, ptr %28, i32 0, i32 1
  store i64 %27, ptr %29, align 8, !tbaa !53
  %30 = load ptr, ptr %11, align 8, !tbaa !3
  %31 = load ptr, ptr %13, align 8, !tbaa !8
  %32 = getelementptr inbounds nuw %struct.nghttp2_ext_altsvc, ptr %31, i32 0, i32 2
  store ptr %30, ptr %32, align 8, !tbaa !54
  %33 = load i64, ptr %12, align 8, !tbaa !18
  %34 = load ptr, ptr %13, align 8, !tbaa !8
  %35 = getelementptr inbounds nuw %struct.nghttp2_ext_altsvc, ptr %34, i32 0, i32 3
  store i64 %33, ptr %35, align 8, !tbaa !55
  call void @llvm.lifetime.end.p0(i64 8, ptr %13) #7
  ret void
}