; Function Attrs: mustprogress nofree norecurse nosync nounwind willreturn memory(write, argmem: readwrite, inaccessiblemem: none) uwtable
define hidden void @nghttp2_frame_altsvc_init(ptr noundef captures(none) initializes((0, 15)) %0, i32 noundef %1, ptr noundef %2, i64 noundef %3, ptr noundef %4, i64 noundef %5) local_unnamed_addr #8 {
  %7 = add i64 %3, 2
  %8 = add i64 %7, %5
  store i64 %8, ptr %0, align 8, !tbaa !3
  %9 = getelementptr inbounds nuw i8, ptr %0, i64 12
  store i8 10, ptr %9, align 4, !tbaa !9
  %10 = getelementptr inbounds nuw i8, ptr %0, i64 13
  store i8 0, ptr %10, align 1, !tbaa !11
  %11 = getelementptr inbounds nuw i8, ptr %0, i64 8
  store i32 %1, ptr %11, align 8, !tbaa !12
  %12 = getelementptr inbounds nuw i8, ptr %0, i64 14
  store i8 0, ptr %12, align 2, !tbaa !13
  %13 = getelementptr inbounds nuw i8, ptr %0, i64 16
  %14 = load ptr, ptr %13, align 8, !tbaa !46
  store ptr %2, ptr %14, align 8, !tbaa !48
  %15 = getelementptr inbounds nuw i8, ptr %14, i64 8
  store i64 %3, ptr %15, align 8, !tbaa !50
  %16 = getelementptr inbounds nuw i8, ptr %14, i64 16
  store ptr %4, ptr %16, align 8, !tbaa !51
  %17 = getelementptr inbounds nuw i8, ptr %14, i64 24
  store i64 %5, ptr %17, align 8, !tbaa !52
  ret void
}